target datalayout = "e-m:e-p270:32:32-p271:32:32-p272:64:64-i64:64-i128:128-f80:128-n8:16:32:64-S128"
target triple = "x86_64-pc-linux-gnu"

@proto_ax25_kiss = internal global i32 0, align 4
@kiss_handle = internal global ptr null, align 8
@.str.25 = private unnamed_addr constant [11 x i8] c"wtap_encap\00", align 1
@.str.26 = private unnamed_addr constant [5 x i8] c"ax25\00", align 1
@ax25_handle = internal global ptr null, align 8
@ax25_cap_handle = internal global ptr null, align 8

; Function Attrs: null_pointer_is_valid sspstrong uwtable
define hidden void @proto_reg_handoff_ax25_kiss() #0 {
  %1 = alloca ptr, align 8
  call void @llvm.lifetime.start.p0(i64 8, ptr %1) #5
  %2 = load ptr, ptr @kiss_handle, align 8
  call void @dissector_add_uint(ptr noundef @.str.25, i32 noundef 147, ptr noundef %2)
  %3 = load i32, ptr @proto_ax25_kiss, align 4
  %4 = call ptr @create_capture_dissector_handle(ptr noundef @capture_ax25_kiss, i32 noundef %3)
  store ptr %4, ptr %1, align 8
  %5 = load ptr, ptr %1, align 8
  call void @capture_dissector_add_uint(ptr noundef @.str.25, i32 noundef 147, ptr noundef %5)
  %6 = load i32, ptr @proto_ax25_kiss, align 4
  %7 = call ptr @find_dissector_add_dependency(ptr noundef @.str.26, i32 noundef %6)
  store ptr %7, ptr @ax25_handle, align 8
  %8 = call ptr @find_capture_dissector(ptr noundef @.str.26)
  store ptr %8, ptr @ax25_cap_handle, align 8
  call void @llvm.lifetime.end.p0(i64 8, ptr %1) #5
  ret void
}