; Function Attrs: null_pointer_is_valid sspstrong uwtable
define hidden void @proto_reg_handoff_ax25_kiss() local_unnamed_addr #0 {
  %1 = load ptr, ptr @kiss_handle, align 8
  tail call void @dissector_add_uint(ptr noundef nonnull @.str.25, i32 noundef 147, ptr noundef %1)
  %2 = load i32, ptr @proto_ax25_kiss, align 4
  %3 = tail call ptr @create_capture_dissector_handle(ptr noundef nonnull @capture_ax25_kiss, i32 noundef %2)
  tail call void @capture_dissector_add_uint(ptr noundef nonnull @.str.25, i32 noundef 147, ptr noundef %3)
  %4 = load i32, ptr @proto_ax25_kiss, align 4
  %5 = tail call ptr @find_dissector_add_dependency(ptr noundef nonnull @.str.26, i32 noundef %4)
  store ptr %5, ptr @ax25_handle, align 8
  %6 = tail call ptr @find_capture_dissector(ptr noundef nonnull @.str.26)
  store ptr %6, ptr @ax25_cap_handle, align 8
  ret void
}